	.file	"FIRESC.cpp"
	.section	.text._ZnwjPv,"axG",@progbits,_ZnwjPv,comdat
	.weak	_ZnwjPv
	.type	_ZnwjPv, @function
_ZnwjPv:
.LFB262:
	.cfi_startproc
	pushl	%ebp
	.cfi_def_cfa_offset 8
	.cfi_offset 5, -8
	movl	%esp, %ebp
	.cfi_def_cfa_register 5
	movl	12(%ebp), %eax
	popl	%ebp
	.cfi_def_cfa 4, 4
	.cfi_restore 5
	ret
	.cfi_endproc
.LFE262:
	.size	_ZnwjPv, .-_ZnwjPv
	.local	_ZStL8__ioinit
	.comm	_ZStL8__ioinit,1,1
	.section	.rodata
.LC0:
	.string	"%d"
.LC1:
	.string	"%d%d"
	.text
	.globl	main
	.type	main, @function
main:
.LFB1367:
	.cfi_startproc
	.cfi_personality 0,__gxx_personality_v0
	.cfi_lsda 0,.LLSDA1367
	pushl	%ebp
	.cfi_def_cfa_offset 8
	.cfi_offset 5, -8
	movl	%esp, %ebp
	.cfi_def_cfa_register 5
	pushl	%edi
	pushl	%esi
	pushl	%ebx
	andl	$-16, %esp
	subl	$1200048, %esp
	leal	24(%esp), %ebx
	.cfi_offset 3, -20
	.cfi_offset 6, -16
	.cfi_offset 7, -12
	movl	%ebx, %edi
	movl	$99999, %esi
	jmp	.L3
.L4:
	movl	%edi, (%esp)
.LEHB0:
	call	_ZNSt6vectorIiSaIiEEC1Ev
.LEHE0:
	addl	$12, %edi
	subl	$1, %esi
.L3:
	cmpl	$-1, %esi
	setne	%al
	testb	%al, %al
	jne	.L4
	leal	1200024(%esp), %eax
	movl	%eax, 4(%esp)
	movl	$.LC0, (%esp)
.LEHB1:
	call	scanf
	jmp	.L5
.L8:
	leal	1200032(%esp), %eax
	movl	%eax, 8(%esp)
	leal	1200028(%esp), %eax
	movl	%eax, 4(%esp)
	movl	$.LC1, (%esp)
	call	scanf
	movl	$0, 1200044(%esp)
	jmp	.L6
.L7:
	leal	1200040(%esp), %eax
	movl	%eax, 8(%esp)
	leal	1200036(%esp), %eax
	movl	%eax, 4(%esp)
	movl	$.LC1, (%esp)
	call	scanf
	movl	1200036(%esp), %edx
	leal	24(%esp), %ecx
	movl	%edx, %eax
	addl	%eax, %eax
	addl	%edx, %eax
	sall	$2, %eax
	leal	(%ecx,%eax), %edx
	leal	1200040(%esp), %eax
	movl	%eax, 4(%esp)
	movl	%edx, (%esp)
	call	_ZNSt6vectorIiSaIiEE9push_backERKi
.LEHE1:
	addl	$1, 1200044(%esp)
.L6:
	movl	1200032(%esp), %eax
	cmpl	%eax, 1200044(%esp)
	setl	%al
	testb	%al, %al
	jne	.L7
.L5:
	movl	1200024(%esp), %eax
	testl	%eax, %eax
	setne	%dl
	subl	$1, %eax
	movl	%eax, 1200024(%esp)
	testb	%dl, %dl
	jne	.L8
	movl	$0, %esi
	leal	24(%esp), %eax
	leal	1200000(%eax), %ebx
.L10:
	leal	24(%esp), %eax
	cmpl	%eax, %ebx
	je	.L9
	subl	$12, %ebx
	movl	%ebx, (%esp)
.LEHB2:
	call	_ZNSt6vectorIiSaIiEED1Ev
.LEHE2:
	jmp	.L10
.L9:
	movl	%esi, %eax
	leal	-12(%ebp), %esp
	popl	%ebx
	.cfi_remember_state
	.cfi_restore 3
	popl	%esi
	.cfi_restore 6
	popl	%edi
	.cfi_restore 7
	popl	%ebp
	.cfi_def_cfa 4, 4
	.cfi_restore 5
	ret
.L17:
	.cfi_restore_state
	movl	%eax, %edi
	testl	%ebx, %ebx
	je	.L12
	imull	$-12, %esi, %eax
	addl	$1199988, %eax
	leal	(%ebx,%eax), %esi
.L13:
	cmpl	%ebx, %esi
	je	.L12
	subl	$12, %esi
	movl	%esi, (%esp)
	call	_ZNSt6vectorIiSaIiEED1Ev
	jmp	.L13
.L12:
	movl	%edi, %eax
	movl	%eax, (%esp)
.LEHB3:
	call	_Unwind_Resume
.LEHE3:
.L18:
	movl	%eax, %esi
	leal	24(%esp), %eax
	leal	1200000(%eax), %ebx
.L16:
	leal	24(%esp), %eax
	cmpl	%eax, %ebx
	je	.L15
	subl	$12, %ebx
	movl	%ebx, (%esp)
	call	_ZNSt6vectorIiSaIiEED1Ev
	jmp	.L16
.L15:
	movl	%esi, %eax
	movl	%eax, (%esp)
.LEHB4:
	call	_Unwind_Resume
.LEHE4:
	.cfi_endproc
.LFE1367:
	.globl	__gxx_personality_v0
	.section	.gcc_except_table,"a",@progbits
.LLSDA1367:
	.byte	0xff
	.byte	0xff
	.byte	0x1
	.uleb128 .LLSDACSE1367-.LLSDACSB1367
.LLSDACSB1367:
	.uleb128 .LEHB0-.LFB1367
	.uleb128 .LEHE0-.LEHB0
	.uleb128 .L17-.LFB1367
	.uleb128 0
	.uleb128 .LEHB1-.LFB1367
	.uleb128 .LEHE1-.LEHB1
	.uleb128 .L18-.LFB1367
	.uleb128 0
	.uleb128 .LEHB2-.LFB1367
	.uleb128 .LEHE2-.LEHB2
	.uleb128 0
	.uleb128 0
	.uleb128 .LEHB3-.LFB1367
	.uleb128 .LEHE3-.LEHB3
	.uleb128 0
	.uleb128 0
	.uleb128 .LEHB4-.LFB1367
	.uleb128 .LEHE4-.LEHB4
	.uleb128 0
	.uleb128 0
.LLSDACSE1367:
	.text
	.size	main, .-main
	.section	.text._ZNSt6vectorIiSaIiEEC2Ev,"axG",@progbits,_ZNSt6vectorIiSaIiEEC5Ev,comdat
	.align 2
	.weak	_ZNSt6vectorIiSaIiEEC2Ev
	.type	_ZNSt6vectorIiSaIiEEC2Ev, @function
_ZNSt6vectorIiSaIiEEC2Ev:
.LFB1370:
	.cfi_startproc
	pushl	%ebp
	.cfi_def_cfa_offset 8
	.cfi_offset 5, -8
	movl	%esp, %ebp
	.cfi_def_cfa_register 5
	subl	$24, %esp
	movl	8(%ebp), %eax
	movl	%eax, (%esp)
	call	_ZNSt12_Vector_baseIiSaIiEEC2Ev
	leave
	.cfi_restore 5
	.cfi_def_cfa 4, 4
	ret
	.cfi_endproc
.LFE1370:
	.size	_ZNSt6vectorIiSaIiEEC2Ev, .-_ZNSt6vectorIiSaIiEEC2Ev
	.section	.text._ZNSt6vectorIiSaIiEED2Ev,"axG",@progbits,_ZNSt6vectorIiSaIiEED5Ev,comdat
	.align 2
	.weak	_ZNSt6vectorIiSaIiEED2Ev
	.type	_ZNSt6vectorIiSaIiEED2Ev, @function
_ZNSt6vectorIiSaIiEED2Ev:
.LFB1373:
	.cfi_startproc
	.cfi_personality 0,__gxx_personality_v0
	.cfi_lsda 0,.LLSDA1373
	pushl	%ebp
	.cfi_def_cfa_offset 8
	.cfi_offset 5, -8
	movl	%esp, %ebp
	.cfi_def_cfa_register 5
	pushl	%ebx
	subl	$20, %esp
	movl	8(%ebp), %eax
	movl	%eax, (%esp)
	.cfi_offset 3, -12
	call	_ZNSt12_Vector_baseIiSaIiEE19_M_get_Tp_allocatorEv
	movl	8(%ebp), %edx
	movl	4(%edx), %ecx
	movl	8(%ebp), %edx
	movl	(%edx), %edx
	movl	%eax, 8(%esp)
	movl	%ecx, 4(%esp)
	movl	%edx, (%esp)
.LEHB5:
	call	_ZSt8_DestroyIPiiEvT_S1_RSaIT0_E
.LEHE5:
	movl	8(%ebp), %eax
	movl	%eax, (%esp)
.LEHB6:
	call	_ZNSt12_Vector_baseIiSaIiEED2Ev
.LEHE6:
	addl	$20, %esp
	popl	%ebx
	.cfi_remember_state
	.cfi_restore 3
	popl	%ebp
	.cfi_def_cfa 4, 4
	.cfi_restore 5
	ret
.L23:
	.cfi_restore_state
	movl	%eax, %ebx
	movl	8(%ebp), %eax
	movl	%eax, (%esp)
	call	_ZNSt12_Vector_baseIiSaIiEED2Ev
	movl	%ebx, %eax
	movl	%eax, (%esp)
.LEHB7:
	call	_Unwind_Resume
.LEHE7:
	.cfi_endproc
.LFE1373:
	.section	.gcc_except_table
.LLSDA1373:
	.byte	0xff
	.byte	0xff
	.byte	0x1
	.uleb128 .LLSDACSE1373-.LLSDACSB1373
.LLSDACSB1373:
	.uleb128 .LEHB5-.LFB1373
	.uleb128 .LEHE5-.LEHB5
	.uleb128 .L23-.LFB1373
	.uleb128 0
	.uleb128 .LEHB6-.LFB1373
	.uleb128 .LEHE6-.LEHB6
	.uleb128 0
	.uleb128 0
	.uleb128 .LEHB7-.LFB1373
	.uleb128 .LEHE7-.LEHB7
	.uleb128 0
	.uleb128 0
.LLSDACSE1373:
	.section	.text._ZNSt6vectorIiSaIiEED2Ev,"axG",@progbits,_ZNSt6vectorIiSaIiEED5Ev,comdat
	.size	_ZNSt6vectorIiSaIiEED2Ev, .-_ZNSt6vectorIiSaIiEED2Ev
	.section	.text._ZNSt6vectorIiSaIiEE9push_backERKi,"axG",@progbits,_ZNSt6vectorIiSaIiEE9push_backERKi,comdat
	.align 2
	.weak	_ZNSt6vectorIiSaIiEE9push_backERKi
	.type	_ZNSt6vectorIiSaIiEE9push_backERKi, @function
_ZNSt6vectorIiSaIiEE9push_backERKi:
.LFB1375:
	.cfi_startproc
	pushl	%ebp
	.cfi_def_cfa_offset 8
	.cfi_offset 5, -8
	movl	%esp, %ebp
	.cfi_def_cfa_register 5
	subl	$40, %esp
	movl	8(%ebp), %eax
	movl	4(%eax), %edx
	movl	8(%ebp), %eax
	movl	8(%eax), %eax
	cmpl	%eax, %edx
	je	.L25
	movl	8(%ebp), %eax
	movl	4(%eax), %edx
	movl	8(%ebp), %eax
	movl	12(%ebp), %ecx
	movl	%ecx, 8(%esp)
	movl	%edx, 4(%esp)
	movl	%eax, (%esp)
	call	_ZN9__gnu_cxx13new_allocatorIiE9constructEPiRKi
	movl	8(%ebp), %eax
	movl	4(%eax), %eax
	leal	4(%eax), %edx
	movl	8(%ebp), %eax
	movl	%edx, 4(%eax)
	jmp	.L24
.L25:
	leal	-12(%ebp), %eax
	movl	8(%ebp), %edx
	movl	%edx, 4(%esp)
	movl	%eax, (%esp)
	call	_ZNSt6vectorIiSaIiEE3endEv
	subl	$4, %esp
	movl	12(%ebp), %eax
	movl	%eax, 8(%esp)
	movl	-12(%ebp), %eax
	movl	%eax, 4(%esp)
	movl	8(%ebp), %eax
	movl	%eax, (%esp)
	call	_ZNSt6vectorIiSaIiEE13_M_insert_auxEN9__gnu_cxx17__normal_iteratorIPiS1_EERKi
.L24:
	leave
	.cfi_restore 5
	.cfi_def_cfa 4, 4
	ret
	.cfi_endproc
.LFE1375:
	.size	_ZNSt6vectorIiSaIiEE9push_backERKi, .-_ZNSt6vectorIiSaIiEE9push_backERKi
	.section	.text._ZNSt12_Vector_baseIiSaIiEE12_Vector_implD2Ev,"axG",@progbits,_ZNSt12_Vector_baseIiSaIiEE12_Vector_implD5Ev,comdat
	.align 2
	.weak	_ZNSt12_Vector_baseIiSaIiEE12_Vector_implD2Ev
	.type	_ZNSt12_Vector_baseIiSaIiEE12_Vector_implD2Ev, @function
_ZNSt12_Vector_baseIiSaIiEE12_Vector_implD2Ev:
.LFB1380:
	.cfi_startproc
	pushl	%ebp
	.cfi_def_cfa_offset 8
	.cfi_offset 5, -8
	movl	%esp, %ebp
	.cfi_def_cfa_register 5
	subl	$24, %esp
	movl	8(%ebp), %eax
	movl	%eax, (%esp)
	call	_ZNSaIiED2Ev
	leave
	.cfi_restore 5
	.cfi_def_cfa 4, 4
	ret
	.cfi_endproc
.LFE1380:
	.size	_ZNSt12_Vector_baseIiSaIiEE12_Vector_implD2Ev, .-_ZNSt12_Vector_baseIiSaIiEE12_Vector_implD2Ev
	.section	.text._ZNSt12_Vector_baseIiSaIiEEC2Ev,"axG",@progbits,_ZNSt12_Vector_baseIiSaIiEEC5Ev,comdat
	.align 2
	.weak	_ZNSt12_Vector_baseIiSaIiEEC2Ev
	.type	_ZNSt12_Vector_baseIiSaIiEEC2Ev, @function
_ZNSt12_Vector_baseIiSaIiEEC2Ev:
.LFB1382:
	.cfi_startproc
	pushl	%ebp
	.cfi_def_cfa_offset 8
	.cfi_offset 5, -8
	movl	%esp, %ebp
	.cfi_def_cfa_register 5
	subl	$24, %esp
	movl	8(%ebp), %eax
	movl	%eax, (%esp)
	call	_ZNSt12_Vector_baseIiSaIiEE12_Vector_implC1Ev
	leave
	.cfi_restore 5
	.cfi_def_cfa 4, 4
	ret
	.cfi_endproc
.LFE1382:
	.size	_ZNSt12_Vector_baseIiSaIiEEC2Ev, .-_ZNSt12_Vector_baseIiSaIiEEC2Ev
	.section	.text._ZNSt12_Vector_baseIiSaIiEED2Ev,"axG",@progbits,_ZNSt12_Vector_baseIiSaIiEED5Ev,comdat
	.align 2
	.weak	_ZNSt12_Vector_baseIiSaIiEED2Ev
	.type	_ZNSt12_Vector_baseIiSaIiEED2Ev, @function
_ZNSt12_Vector_baseIiSaIiEED2Ev:
.LFB1385:
	.cfi_startproc
	.cfi_personality 0,__gxx_personality_v0
	.cfi_lsda 0,.LLSDA1385
	pushl	%ebp
	.cfi_def_cfa_offset 8
	.cfi_offset 5, -8
	movl	%esp, %ebp
	.cfi_def_cfa_register 5
	pushl	%ebx
	subl	$20, %esp
	movl	8(%ebp), %eax
	movl	8(%eax), %eax
	movl	%eax, %edx
	movl	8(%ebp), %eax
	movl	(%eax), %eax
	movl	%edx, %ecx
	subl	%eax, %ecx
	movl	%ecx, %eax
	sarl	$2, %eax
	movl	%eax, %edx
	movl	8(%ebp), %eax
	movl	(%eax), %eax
	movl	%edx, 8(%esp)
	movl	%eax, 4(%esp)
	movl	8(%ebp), %eax
	movl	%eax, (%esp)
.LEHB8:
	.cfi_offset 3, -12
	call	_ZNSt12_Vector_baseIiSaIiEE13_M_deallocateEPij
.LEHE8:
	movl	8(%ebp), %eax
	movl	%eax, (%esp)
	call	_ZNSt12_Vector_baseIiSaIiEE12_Vector_implD1Ev
	addl	$20, %esp
	popl	%ebx
	.cfi_remember_state
	.cfi_restore 3
	popl	%ebp
	.cfi_def_cfa 4, 4
	.cfi_restore 5
	ret
.L33:
	.cfi_restore_state
	movl	%eax, %ebx
	movl	8(%ebp), %eax
	movl	%eax, (%esp)
	call	_ZNSt12_Vector_baseIiSaIiEE12_Vector_implD1Ev
	movl	%ebx, %eax
	movl	%eax, (%esp)
.LEHB9:
	call	_Unwind_Resume
.LEHE9:
	.cfi_endproc
.LFE1385:
	.section	.gcc_except_table
.LLSDA1385:
	.byte	0xff
	.byte	0xff
	.byte	0x1
	.uleb128 .LLSDACSE1385-.LLSDACSB1385
.LLSDACSB1385:
	.uleb128 .LEHB8-.LFB1385
	.uleb128 .LEHE8-.LEHB8
	.uleb128 .L33-.LFB1385
	.uleb128 0
	.uleb128 .LEHB9-.LFB1385
	.uleb128 .LEHE9-.LEHB9
	.uleb128 0
	.uleb128 0
.LLSDACSE1385:
	.section	.text._ZNSt12_Vector_baseIiSaIiEED2Ev,"axG",@progbits,_ZNSt12_Vector_baseIiSaIiEED5Ev,comdat
	.size	_ZNSt12_Vector_baseIiSaIiEED2Ev, .-_ZNSt12_Vector_baseIiSaIiEED2Ev
	.section	.text._ZNSt12_Vector_baseIiSaIiEE19_M_get_Tp_allocatorEv,"axG",@progbits,_ZNSt12_Vector_baseIiSaIiEE19_M_get_Tp_allocatorEv,comdat
	.align 2
	.weak	_ZNSt12_Vector_baseIiSaIiEE19_M_get_Tp_allocatorEv
	.type	_ZNSt12_Vector_baseIiSaIiEE19_M_get_Tp_allocatorEv, @function
_ZNSt12_Vector_baseIiSaIiEE19_M_get_Tp_allocatorEv:
.LFB1387:
	.cfi_startproc
	pushl	%ebp
	.cfi_def_cfa_offset 8
	.cfi_offset 5, -8
	movl	%esp, %ebp
	.cfi_def_cfa_register 5
	movl	8(%ebp), %eax
	popl	%ebp
	.cfi_def_cfa 4, 4
	.cfi_restore 5
	ret
	.cfi_endproc
.LFE1387:
	.size	_ZNSt12_Vector_baseIiSaIiEE19_M_get_Tp_allocatorEv, .-_ZNSt12_Vector_baseIiSaIiEE19_M_get_Tp_allocatorEv
	.section	.text._ZSt8_DestroyIPiiEvT_S1_RSaIT0_E,"axG",@progbits,_ZSt8_DestroyIPiiEvT_S1_RSaIT0_E,comdat
	.weak	_ZSt8_DestroyIPiiEvT_S1_RSaIT0_E
	.type	_ZSt8_DestroyIPiiEvT_S1_RSaIT0_E, @function
_ZSt8_DestroyIPiiEvT_S1_RSaIT0_E:
.LFB1388:
	.cfi_startproc
	pushl	%ebp
	.cfi_def_cfa_offset 8
	.cfi_offset 5, -8
	movl	%esp, %ebp
	.cfi_def_cfa_register 5
	subl	$24, %esp
	movl	12(%ebp), %eax
	movl	%eax, 4(%esp)
	movl	8(%ebp), %eax
	movl	%eax, (%esp)
	call	_ZSt8_DestroyIPiEvT_S1_
	leave
	.cfi_restore 5
	.cfi_def_cfa 4, 4
	ret
	.cfi_endproc
.LFE1388:
	.size	_ZSt8_DestroyIPiiEvT_S1_RSaIT0_E, .-_ZSt8_DestroyIPiiEvT_S1_RSaIT0_E
	.section	.text._ZN9__gnu_cxx13new_allocatorIiE9constructEPiRKi,"axG",@progbits,_ZN9__gnu_cxx13new_allocatorIiE9constructEPiRKi,comdat
	.align 2
	.weak	_ZN9__gnu_cxx13new_allocatorIiE9constructEPiRKi
	.type	_ZN9__gnu_cxx13new_allocatorIiE9constructEPiRKi, @function
_ZN9__gnu_cxx13new_allocatorIiE9constructEPiRKi:
.LFB1389:
	.cfi_startproc
	pushl	%ebp
	.cfi_def_cfa_offset 8
	.cfi_offset 5, -8
	movl	%esp, %ebp
	.cfi_def_cfa_register 5
	subl	$24, %esp
	movl	12(%ebp), %eax
	movl	%eax, 4(%esp)
	movl	$4, (%esp)
	call	_ZnwjPv
	testl	%eax, %eax
	je	.L36
	movl	16(%ebp), %edx
	movl	(%edx), %edx
	movl	%edx, (%eax)
.L36:
	leave
	.cfi_restore 5
	.cfi_def_cfa 4, 4
	ret
	.cfi_endproc
.LFE1389:
	.size	_ZN9__gnu_cxx13new_allocatorIiE9constructEPiRKi, .-_ZN9__gnu_cxx13new_allocatorIiE9constructEPiRKi
	.section	.rodata
.LC2:
	.string	"vector::_M_insert_aux"
	.section	.text._ZNSt6vectorIiSaIiEE13_M_insert_auxEN9__gnu_cxx17__normal_iteratorIPiS1_EERKi,"axG",@progbits,_ZNSt6vectorIiSaIiEE13_M_insert_auxEN9__gnu_cxx17__normal_iteratorIPiS1_EERKi,comdat
	.align 2
	.weak	_ZNSt6vectorIiSaIiEE13_M_insert_auxEN9__gnu_cxx17__normal_iteratorIPiS1_EERKi
	.type	_ZNSt6vectorIiSaIiEE13_M_insert_auxEN9__gnu_cxx17__normal_iteratorIPiS1_EERKi, @function
_ZNSt6vectorIiSaIiEE13_M_insert_auxEN9__gnu_cxx17__normal_iteratorIPiS1_EERKi:
.LFB1390:
	.cfi_startproc
	.cfi_personality 0,__gxx_personality_v0
	.cfi_lsda 0,.LLSDA1390
	pushl	%ebp
	.cfi_def_cfa_offset 8
	.cfi_offset 5, -8
	movl	%esp, %ebp
	.cfi_def_cfa_register 5
	pushl	%esi
	pushl	%ebx
	subl	$48, %esp
	movl	8(%ebp), %eax
	movl	4(%eax), %edx
	movl	8(%ebp), %eax
	movl	8(%eax), %eax
	cmpl	%eax, %edx
	je	.L40
	.cfi_offset 3, -16
	.cfi_offset 6, -12
	movl	8(%ebp), %eax
	movl	4(%eax), %eax
	leal	-4(%eax), %ecx
	movl	8(%ebp), %eax
	movl	4(%eax), %edx
	movl	8(%ebp), %eax
	movl	%ecx, 8(%esp)
	movl	%edx, 4(%esp)
	movl	%eax, (%esp)
	call	_ZN9__gnu_cxx13new_allocatorIiE9constructEPiRKi
	movl	8(%ebp), %eax
	movl	4(%eax), %eax
	leal	4(%eax), %edx
	movl	8(%ebp), %eax
	movl	%edx, 4(%eax)
	movl	16(%ebp), %eax
	movl	(%eax), %eax
	movl	%eax, -24(%ebp)
	movl	8(%ebp), %eax
	movl	4(%eax), %eax
	leal	-4(%eax), %esi
	movl	8(%ebp), %eax
	movl	4(%eax), %eax
	leal	-8(%eax), %ebx
	leal	12(%ebp), %eax
	movl	%eax, (%esp)
	call	_ZNK9__gnu_cxx17__normal_iteratorIPiSt6vectorIiSaIiEEE4baseEv
	movl	(%eax), %eax
	movl	%esi, 8(%esp)
	movl	%ebx, 4(%esp)
	movl	%eax, (%esp)
.LEHB10:
	call	_ZSt13copy_backwardIPiS0_ET0_T_S2_S1_
	leal	12(%ebp), %eax
	movl	%eax, (%esp)
	call	_ZNK9__gnu_cxx17__normal_iteratorIPiSt6vectorIiSaIiEEEdeEv
	movl	-24(%ebp), %edx
	movl	%edx, (%eax)
	jmp	.L39
.L40:
	movl	$.LC2, 8(%esp)
	movl	$1, 4(%esp)
	movl	8(%ebp), %eax
	movl	%eax, (%esp)
	call	_ZNKSt6vectorIiSaIiEE12_M_check_lenEjPKc
	movl	%eax, -20(%ebp)
	leal	-32(%ebp), %eax
	movl	8(%ebp), %edx
	movl	%edx, 4(%esp)
	movl	%eax, (%esp)
	call	_ZNSt6vectorIiSaIiEE5beginEv
	subl	$4, %esp
	leal	-32(%ebp), %eax
	movl	%eax, 4(%esp)
	leal	12(%ebp), %eax
	movl	%eax, (%esp)
	call	_ZN9__gnu_cxxmiIPiSt6vectorIiSaIiEEEENS_17__normal_iteratorIT_T0_E15difference_typeERKS8_SB_
	movl	%eax, -16(%ebp)
	movl	8(%ebp), %eax
	movl	-20(%ebp), %edx
	movl	%edx, 4(%esp)
	movl	%eax, (%esp)
	call	_ZNSt12_Vector_baseIiSaIiEE11_M_allocateEj
.LEHE10:
	movl	%eax, -12(%ebp)
	movl	-12(%ebp), %eax
	movl	%eax, -28(%ebp)
	movl	-16(%ebp), %eax
	sall	$2, %eax
	movl	%eax, %edx
	addl	-12(%ebp), %edx
	movl	8(%ebp), %eax
	movl	16(%ebp), %ecx
	movl	%ecx, 8(%esp)
	movl	%edx, 4(%esp)
	movl	%eax, (%esp)
	call	_ZN9__gnu_cxx13new_allocatorIiE9constructEPiRKi
	movl	$0, -28(%ebp)
	movl	8(%ebp), %eax
	movl	%eax, (%esp)
	call	_ZNSt12_Vector_baseIiSaIiEE19_M_get_Tp_allocatorEv
	movl	%eax, %ebx
	leal	12(%ebp), %eax
	movl	%eax, (%esp)
	call	_ZNK9__gnu_cxx17__normal_iteratorIPiSt6vectorIiSaIiEEE4baseEv
	movl	(%eax), %edx
	movl	8(%ebp), %eax
	movl	(%eax), %eax
	movl	%ebx, 12(%esp)
	movl	-12(%ebp), %ecx
	movl	%ecx, 8(%esp)
	movl	%edx, 4(%esp)
	movl	%eax, (%esp)
.LEHB11:
	call	_ZSt22__uninitialized_move_aIPiS0_SaIiEET0_T_S3_S2_RT1_
	movl	%eax, -28(%ebp)
	addl	$4, -28(%ebp)
	movl	8(%ebp), %eax
	movl	%eax, (%esp)
	call	_ZNSt12_Vector_baseIiSaIiEE19_M_get_Tp_allocatorEv
	movl	%eax, %ebx
	movl	8(%ebp), %eax
	movl	4(%eax), %esi
	leal	12(%ebp), %eax
	movl	%eax, (%esp)
	call	_ZNK9__gnu_cxx17__normal_iteratorIPiSt6vectorIiSaIiEEE4baseEv
	movl	(%eax), %eax
	movl	%ebx, 12(%esp)
	movl	-28(%ebp), %edx
	movl	%edx, 8(%esp)
	movl	%esi, 4(%esp)
	movl	%eax, (%esp)
	call	_ZSt22__uninitialized_move_aIPiS0_SaIiEET0_T_S3_S2_RT1_
.LEHE11:
	movl	%eax, -28(%ebp)
	movl	8(%ebp), %eax
	movl	%eax, (%esp)
	call	_ZNSt12_Vector_baseIiSaIiEE19_M_get_Tp_allocatorEv
	movl	8(%ebp), %edx
	movl	4(%edx), %ecx
	movl	8(%ebp), %edx
	movl	(%edx), %edx
	movl	%eax, 8(%esp)
	movl	%ecx, 4(%esp)
	movl	%edx, (%esp)
.LEHB12:
	call	_ZSt8_DestroyIPiiEvT_S1_RSaIT0_E
	movl	8(%ebp), %eax
	movl	8(%eax), %eax
	movl	%eax, %edx
	movl	8(%ebp), %eax
	movl	(%eax), %eax
	movl	%edx, %ecx
	subl	%eax, %ecx
	movl	%ecx, %eax
	sarl	$2, %eax
	movl	%eax, %ecx
	movl	8(%ebp), %eax
	movl	(%eax), %edx
	movl	8(%ebp), %eax
	movl	%ecx, 8(%esp)
	movl	%edx, 4(%esp)
	movl	%eax, (%esp)
	call	_ZNSt12_Vector_baseIiSaIiEE13_M_deallocateEPij
.LEHE12:
	movl	8(%ebp), %eax
	movl	-12(%ebp), %edx
	movl	%edx, (%eax)
	movl	8(%ebp), %eax
	movl	-28(%ebp), %edx
	movl	%edx, 4(%eax)
	movl	-20(%ebp), %eax
	sall	$2, %eax
	movl	%eax, %edx
	addl	-12(%ebp), %edx
	movl	8(%ebp), %eax
	movl	%edx, 8(%eax)
	jmp	.L39
.L47:
	movl	%eax, %ebx
	call	__cxa_end_catch
	movl	%ebx, %eax
	movl	%eax, (%esp)
.LEHB13:
	call	_Unwind_Resume
.LEHE13:
.L46:
	movl	%eax, (%esp)
	call	__cxa_begin_catch
	cmpl	$0, -28(%ebp)
	jne	.L44
	movl	-16(%ebp), %eax
	sall	$2, %eax
	movl	%eax, %edx
	addl	-12(%ebp), %edx
	movl	8(%ebp), %eax
	movl	%edx, 4(%esp)
	movl	%eax, (%esp)
	call	_ZN9__gnu_cxx13new_allocatorIiE7destroyEPi
	jmp	.L45
.L44:
	movl	8(%ebp), %eax
	movl	%eax, (%esp)
	call	_ZNSt12_Vector_baseIiSaIiEE19_M_get_Tp_allocatorEv
	movl	%eax, 8(%esp)
	movl	-28(%ebp), %eax
	movl	%eax, 4(%esp)
	movl	-12(%ebp), %eax
	movl	%eax, (%esp)
.LEHB14:
	call	_ZSt8_DestroyIPiiEvT_S1_RSaIT0_E
.L45:
	movl	8(%ebp), %eax
	movl	-20(%ebp), %edx
	movl	%edx, 8(%esp)
	movl	-12(%ebp), %edx
	movl	%edx, 4(%esp)
	movl	%eax, (%esp)
	call	_ZNSt12_Vector_baseIiSaIiEE13_M_deallocateEPij
	call	__cxa_rethrow
.LEHE14:
.L39:
	leal	-8(%ebp), %esp
	popl	%ebx
	.cfi_restore 3
	popl	%esi
	.cfi_restore 6
	popl	%ebp
	.cfi_def_cfa 4, 4
	.cfi_restore 5
	ret
	.cfi_endproc
.LFE1390:
	.section	.gcc_except_table
	.align 4
.LLSDA1390:
	.byte	0xff
	.byte	0
	.uleb128 .LLSDATT1390-.LLSDATTD1390
.LLSDATTD1390:
	.byte	0x1
	.uleb128 .LLSDACSE1390-.LLSDACSB1390
.LLSDACSB1390:
	.uleb128 .LEHB10-.LFB1390
	.uleb128 .LEHE10-.LEHB10
	.uleb128 0
	.uleb128 0
	.uleb128 .LEHB11-.LFB1390
	.uleb128 .LEHE11-.LEHB11
	.uleb128 .L46-.LFB1390
	.uleb128 0x1
	.uleb128 .LEHB12-.LFB1390
	.uleb128 .LEHE12-.LEHB12
	.uleb128 0
	.uleb128 0
	.uleb128 .LEHB13-.LFB1390
	.uleb128 .LEHE13-.LEHB13
	.uleb128 0
	.uleb128 0
	.uleb128 .LEHB14-.LFB1390
	.uleb128 .LEHE14-.LEHB14
	.uleb128 .L47-.LFB1390
	.uleb128 0
.LLSDACSE1390:
	.byte	0x1
	.byte	0
	.align 4
	.long	0
.LLSDATT1390:
	.section	.text._ZNSt6vectorIiSaIiEE13_M_insert_auxEN9__gnu_cxx17__normal_iteratorIPiS1_EERKi,"axG",@progbits,_ZNSt6vectorIiSaIiEE13_M_insert_auxEN9__gnu_cxx17__normal_iteratorIPiS1_EERKi,comdat
	.size	_ZNSt6vectorIiSaIiEE13_M_insert_auxEN9__gnu_cxx17__normal_iteratorIPiS1_EERKi, .-_ZNSt6vectorIiSaIiEE13_M_insert_auxEN9__gnu_cxx17__normal_iteratorIPiS1_EERKi
	.section	.text._ZNSt6vectorIiSaIiEE3endEv,"axG",@progbits,_ZNSt6vectorIiSaIiEE3endEv,comdat
	.align 2
	.weak	_ZNSt6vectorIiSaIiEE3endEv
	.type	_ZNSt6vectorIiSaIiEE3endEv, @function
_ZNSt6vectorIiSaIiEE3endEv:
.LFB1391:
	.cfi_startproc
	pushl	%ebp
	.cfi_def_cfa_offset 8
	.cfi_offset 5, -8
	movl	%esp, %ebp
	.cfi_def_cfa_register 5
	subl	$24, %esp
	movl	12(%ebp), %eax
	addl	$4, %eax
	movl	%eax, 4(%esp)
	movl	8(%ebp), %eax
	movl	%eax, (%esp)
	call	_ZN9__gnu_cxx17__normal_iteratorIPiSt6vectorIiSaIiEEEC1ERKS1_
	movl	8(%ebp), %eax
	leave
	.cfi_restore 5
	.cfi_def_cfa 4, 4
	ret	$4
	.cfi_endproc
.LFE1391:
	.size	_ZNSt6vectorIiSaIiEE3endEv, .-_ZNSt6vectorIiSaIiEE3endEv
	.section	.text._ZNSt12_Vector_baseIiSaIiEE12_Vector_implC2Ev,"axG",@progbits,_ZNSt12_Vector_baseIiSaIiEE12_Vector_implC5Ev,comdat
	.align 2
	.weak	_ZNSt12_Vector_baseIiSaIiEE12_Vector_implC2Ev
	.type	_ZNSt12_Vector_baseIiSaIiEE12_Vector_implC2Ev, @function
_ZNSt12_Vector_baseIiSaIiEE12_Vector_implC2Ev:
.LFB1394:
	.cfi_startproc
	pushl	%ebp
	.cfi_def_cfa_offset 8
	.cfi_offset 5, -8
	movl	%esp, %ebp
	.cfi_def_cfa_register 5
	subl	$24, %esp
	movl	8(%ebp), %eax
	movl	%eax, (%esp)
	call	_ZNSaIiEC2Ev
	movl	8(%ebp), %eax
	movl	$0, (%eax)
	movl	8(%ebp), %eax
	movl	$0, 4(%eax)
	movl	8(%ebp), %eax
	movl	$0, 8(%eax)
	leave
	.cfi_restore 5
	.cfi_def_cfa 4, 4
	ret
	.cfi_endproc
.LFE1394:
	.size	_ZNSt12_Vector_baseIiSaIiEE12_Vector_implC2Ev, .-_ZNSt12_Vector_baseIiSaIiEE12_Vector_implC2Ev
	.section	.text._ZNSaIiED2Ev,"axG",@progbits,_ZNSaIiED5Ev,comdat
	.align 2
	.weak	_ZNSaIiED2Ev
	.type	_ZNSaIiED2Ev, @function
_ZNSaIiED2Ev:
.LFB1397:
	.cfi_startproc
	pushl	%ebp
	.cfi_def_cfa_offset 8
	.cfi_offset 5, -8
	movl	%esp, %ebp
	.cfi_def_cfa_register 5
	subl	$24, %esp
	movl	8(%ebp), %eax
	movl	%eax, (%esp)
	call	_ZN9__gnu_cxx13new_allocatorIiED2Ev
	leave
	.cfi_restore 5
	.cfi_def_cfa 4, 4
	ret
	.cfi_endproc
.LFE1397:
	.size	_ZNSaIiED2Ev, .-_ZNSaIiED2Ev
	.section	.text._ZNSt12_Vector_baseIiSaIiEE13_M_deallocateEPij,"axG",@progbits,_ZNSt12_Vector_baseIiSaIiEE13_M_deallocateEPij,comdat
	.align 2
	.weak	_ZNSt12_Vector_baseIiSaIiEE13_M_deallocateEPij
	.type	_ZNSt12_Vector_baseIiSaIiEE13_M_deallocateEPij, @function
_ZNSt12_Vector_baseIiSaIiEE13_M_deallocateEPij:
.LFB1399:
	.cfi_startproc
	pushl	%ebp
	.cfi_def_cfa_offset 8
	.cfi_offset 5, -8
	movl	%esp, %ebp
	.cfi_def_cfa_register 5
	subl	$24, %esp
	cmpl	$0, 12(%ebp)
	je	.L52
	movl	8(%ebp), %eax
	movl	16(%ebp), %edx
	movl	%edx, 8(%esp)
	movl	12(%ebp), %edx
	movl	%edx, 4(%esp)
	movl	%eax, (%esp)
	call	_ZN9__gnu_cxx13new_allocatorIiE10deallocateEPij
.L52:
	leave
	.cfi_restore 5
	.cfi_def_cfa 4, 4
	ret
	.cfi_endproc
.LFE1399:
	.size	_ZNSt12_Vector_baseIiSaIiEE13_M_deallocateEPij, .-_ZNSt12_Vector_baseIiSaIiEE13_M_deallocateEPij
	.section	.text._ZSt8_DestroyIPiEvT_S1_,"axG",@progbits,_ZSt8_DestroyIPiEvT_S1_,comdat
	.weak	_ZSt8_DestroyIPiEvT_S1_
	.type	_ZSt8_DestroyIPiEvT_S1_, @function
_ZSt8_DestroyIPiEvT_S1_:
.LFB1400:
	.cfi_startproc
	pushl	%ebp
	.cfi_def_cfa_offset 8
	.cfi_offset 5, -8
	movl	%esp, %ebp
	.cfi_def_cfa_register 5
	subl	$24, %esp
	movl	12(%ebp), %eax
	movl	%eax, 4(%esp)
	movl	8(%ebp), %eax
	movl	%eax, (%esp)
	call	_ZNSt12_Destroy_auxILb1EE9__destroyIPiEEvT_S3_
	leave
	.cfi_restore 5
	.cfi_def_cfa 4, 4
	ret
	.cfi_endproc
.LFE1400:
	.size	_ZSt8_DestroyIPiEvT_S1_, .-_ZSt8_DestroyIPiEvT_S1_
	.section	.text._ZNK9__gnu_cxx17__normal_iteratorIPiSt6vectorIiSaIiEEE4baseEv,"axG",@progbits,_ZNK9__gnu_cxx17__normal_iteratorIPiSt6vectorIiSaIiEEE4baseEv,comdat
	.align 2
	.weak	_ZNK9__gnu_cxx17__normal_iteratorIPiSt6vectorIiSaIiEEE4baseEv
	.type	_ZNK9__gnu_cxx17__normal_iteratorIPiSt6vectorIiSaIiEEE4baseEv, @function
_ZNK9__gnu_cxx17__normal_iteratorIPiSt6vectorIiSaIiEEE4baseEv:
.LFB1401:
	.cfi_startproc
	pushl	%ebp
	.cfi_def_cfa_offset 8
	.cfi_offset 5, -8
	movl	%esp, %ebp
	.cfi_def_cfa_register 5
	movl	8(%ebp), %eax
	popl	%ebp
	.cfi_def_cfa 4, 4
	.cfi_restore 5
	ret
	.cfi_endproc
.LFE1401:
	.size	_ZNK9__gnu_cxx17__normal_iteratorIPiSt6vectorIiSaIiEEE4baseEv, .-_ZNK9__gnu_cxx17__normal_iteratorIPiSt6vectorIiSaIiEEE4baseEv
	.section	.text._ZSt13copy_backwardIPiS0_ET0_T_S2_S1_,"axG",@progbits,_ZSt13copy_backwardIPiS0_ET0_T_S2_S1_,comdat
	.weak	_ZSt13copy_backwardIPiS0_ET0_T_S2_S1_
	.type	_ZSt13copy_backwardIPiS0_ET0_T_S2_S1_, @function
_ZSt13copy_backwardIPiS0_ET0_T_S2_S1_:
.LFB1402:
	.cfi_startproc
	pushl	%ebp
	.cfi_def_cfa_offset 8
	.cfi_offset 5, -8
	movl	%esp, %ebp
	.cfi_def_cfa_register 5
	pushl	%ebx
	subl	$20, %esp
	movl	12(%ebp), %eax
	movl	%eax, (%esp)
	.cfi_offset 3, -12
	call	_ZSt12__miter_baseIPiENSt11_Miter_baseIT_E13iterator_typeES2_
	movl	%eax, %ebx
	movl	8(%ebp), %eax
	movl	%eax, (%esp)
	call	_ZSt12__miter_baseIPiENSt11_Miter_baseIT_E13iterator_typeES2_
	movl	16(%ebp), %edx
	movl	%edx, 8(%esp)
	movl	%ebx, 4(%esp)
	movl	%eax, (%esp)
	call	_ZSt23__copy_move_backward_a2ILb0EPiS0_ET1_T0_S2_S1_
	addl	$20, %esp
	popl	%ebx
	.cfi_restore 3
	popl	%ebp
	.cfi_def_cfa 4, 4
	.cfi_restore 5
	ret
	.cfi_endproc
.LFE1402:
	.size	_ZSt13copy_backwardIPiS0_ET0_T_S2_S1_, .-_ZSt13copy_backwardIPiS0_ET0_T_S2_S1_
	.section	.text._ZNK9__gnu_cxx17__normal_iteratorIPiSt6vectorIiSaIiEEEdeEv,"axG",@progbits,_ZNK9__gnu_cxx17__normal_iteratorIPiSt6vectorIiSaIiEEEdeEv,comdat
	.align 2
	.weak	_ZNK9__gnu_cxx17__normal_iteratorIPiSt6vectorIiSaIiEEEdeEv
	.type	_ZNK9__gnu_cxx17__normal_iteratorIPiSt6vectorIiSaIiEEEdeEv, @function
_ZNK9__gnu_cxx17__normal_iteratorIPiSt6vectorIiSaIiEEEdeEv:
.LFB1403:
	.cfi_startproc
	pushl	%ebp
	.cfi_def_cfa_offset 8
	.cfi_offset 5, -8
	movl	%esp, %ebp
	.cfi_def_cfa_register 5
	movl	8(%ebp), %eax
	movl	(%eax), %eax
	popl	%ebp
	.cfi_def_cfa 4, 4
	.cfi_restore 5
	ret
	.cfi_endproc
.LFE1403:
	.size	_ZNK9__gnu_cxx17__normal_iteratorIPiSt6vectorIiSaIiEEEdeEv, .-_ZNK9__gnu_cxx17__normal_iteratorIPiSt6vectorIiSaIiEEEdeEv
	.section	.text._ZNKSt6vectorIiSaIiEE12_M_check_lenEjPKc,"axG",@progbits,_ZNKSt6vectorIiSaIiEE12_M_check_lenEjPKc,comdat
	.align 2
	.weak	_ZNKSt6vectorIiSaIiEE12_M_check_lenEjPKc
	.type	_ZNKSt6vectorIiSaIiEE12_M_check_lenEjPKc, @function
_ZNKSt6vectorIiSaIiEE12_M_check_lenEjPKc:
.LFB1404:
	.cfi_startproc
	pushl	%ebp
	.cfi_def_cfa_offset 8
	.cfi_offset 5, -8
	movl	%esp, %ebp
	.cfi_def_cfa_register 5
	pushl	%ebx
	subl	$36, %esp
	movl	8(%ebp), %eax
	movl	%eax, (%esp)
	.cfi_offset 3, -12
	call	_ZNKSt6vectorIiSaIiEE8max_sizeEv
	movl	%eax, %ebx
	movl	8(%ebp), %eax
	movl	%eax, (%esp)
	call	_ZNKSt6vectorIiSaIiEE4sizeEv
	movl	%ebx, %edx
	subl	%eax, %edx
	movl	12(%ebp), %eax
	cmpl	%eax, %edx
	setb	%al
	testb	%al, %al
	je	.L59
	movl	16(%ebp), %eax
	movl	%eax, (%esp)
	call	_ZSt20__throw_length_errorPKc
.L59:
	movl	8(%ebp), %eax
	movl	%eax, (%esp)
	call	_ZNKSt6vectorIiSaIiEE4sizeEv
	movl	%eax, %ebx
	movl	8(%ebp), %eax
	movl	%eax, (%esp)
	call	_ZNKSt6vectorIiSaIiEE4sizeEv
	movl	%eax, -16(%ebp)
	leal	12(%ebp), %eax
	movl	%eax, 4(%esp)
	leal	-16(%ebp), %eax
	movl	%eax, (%esp)
	call	_ZSt3maxIjERKT_S2_S2_
	movl	(%eax), %eax
	addl	%ebx, %eax
	movl	%eax, -12(%ebp)
	movl	8(%ebp), %eax
	movl	%eax, (%esp)
	call	_ZNKSt6vectorIiSaIiEE4sizeEv
	cmpl	-12(%ebp), %eax
	ja	.L60
	movl	8(%ebp), %eax
	movl	%eax, (%esp)
	call	_ZNKSt6vectorIiSaIiEE8max_sizeEv
	cmpl	-12(%ebp), %eax
	jae	.L61
.L60:
	movl	8(%ebp), %eax
	movl	%eax, (%esp)
	call	_ZNKSt6vectorIiSaIiEE8max_sizeEv
	jmp	.L62
.L61:
	movl	-12(%ebp), %eax
.L62:
	addl	$36, %esp
	popl	%ebx
	.cfi_restore 3
	popl	%ebp
	.cfi_def_cfa 4, 4
	.cfi_restore 5
	ret
	.cfi_endproc
.LFE1404:
	.size	_ZNKSt6vectorIiSaIiEE12_M_check_lenEjPKc, .-_ZNKSt6vectorIiSaIiEE12_M_check_lenEjPKc
	.section	.text._ZNSt6vectorIiSaIiEE5beginEv,"axG",@progbits,_ZNSt6vectorIiSaIiEE5beginEv,comdat
	.align 2
	.weak	_ZNSt6vectorIiSaIiEE5beginEv
	.type	_ZNSt6vectorIiSaIiEE5beginEv, @function
_ZNSt6vectorIiSaIiEE5beginEv:
.LFB1405:
	.cfi_startproc
	pushl	%ebp
	.cfi_def_cfa_offset 8
	.cfi_offset 5, -8
	movl	%esp, %ebp
	.cfi_def_cfa_register 5
	subl	$24, %esp
	movl	12(%ebp), %eax
	movl	%eax, 4(%esp)
	movl	8(%ebp), %eax
	movl	%eax, (%esp)
	call	_ZN9__gnu_cxx17__normal_iteratorIPiSt6vectorIiSaIiEEEC1ERKS1_
	movl	8(%ebp), %eax
	leave
	.cfi_restore 5
	.cfi_def_cfa 4, 4
	ret	$4
	.cfi_endproc
.LFE1405:
	.size	_ZNSt6vectorIiSaIiEE5beginEv, .-_ZNSt6vectorIiSaIiEE5beginEv
	.section	.text._ZN9__gnu_cxxmiIPiSt6vectorIiSaIiEEEENS_17__normal_iteratorIT_T0_E15difference_typeERKS8_SB_,"axG",@progbits,_ZN9__gnu_cxxmiIPiSt6vectorIiSaIiEEEENS_17__normal_iteratorIT_T0_E15difference_typeERKS8_SB_,comdat
	.weak	_ZN9__gnu_cxxmiIPiSt6vectorIiSaIiEEEENS_17__normal_iteratorIT_T0_E15difference_typeERKS8_SB_
	.type	_ZN9__gnu_cxxmiIPiSt6vectorIiSaIiEEEENS_17__normal_iteratorIT_T0_E15difference_typeERKS8_SB_, @function
_ZN9__gnu_cxxmiIPiSt6vectorIiSaIiEEEENS_17__normal_iteratorIT_T0_E15difference_typeERKS8_SB_:
.LFB1406:
	.cfi_startproc
	pushl	%ebp
	.cfi_def_cfa_offset 8
	.cfi_offset 5, -8
	movl	%esp, %ebp
	.cfi_def_cfa_register 5
	pushl	%ebx
	subl	$20, %esp
	movl	8(%ebp), %eax
	movl	%eax, (%esp)
	.cfi_offset 3, -12
	call	_ZNK9__gnu_cxx17__normal_iteratorIPiSt6vectorIiSaIiEEE4baseEv
	movl	(%eax), %eax
	movl	%eax, %ebx
	movl	12(%ebp), %eax
	movl	%eax, (%esp)
	call	_ZNK9__gnu_cxx17__normal_iteratorIPiSt6vectorIiSaIiEEE4baseEv
	movl	(%eax), %eax
	movl	%ebx, %edx
	subl	%eax, %edx
	movl	%edx, %eax
	sarl	$2, %eax
	addl	$20, %esp
	popl	%ebx
	.cfi_restore 3
	popl	%ebp
	.cfi_def_cfa 4, 4
	.cfi_restore 5
	ret
	.cfi_endproc
.LFE1406:
	.size	_ZN9__gnu_cxxmiIPiSt6vectorIiSaIiEEEENS_17__normal_iteratorIT_T0_E15difference_typeERKS8_SB_, .-_ZN9__gnu_cxxmiIPiSt6vectorIiSaIiEEEENS_17__normal_iteratorIT_T0_E15difference_typeERKS8_SB_
	.section	.text._ZNSt12_Vector_baseIiSaIiEE11_M_allocateEj,"axG",@progbits,_ZNSt12_Vector_baseIiSaIiEE11_M_allocateEj,comdat
	.align 2
	.weak	_ZNSt12_Vector_baseIiSaIiEE11_M_allocateEj
	.type	_ZNSt12_Vector_baseIiSaIiEE11_M_allocateEj, @function
_ZNSt12_Vector_baseIiSaIiEE11_M_allocateEj:
.LFB1407:
	.cfi_startproc
	pushl	%ebp
	.cfi_def_cfa_offset 8
	.cfi_offset 5, -8
	movl	%esp, %ebp
	.cfi_def_cfa_register 5
	subl	$24, %esp
	cmpl	$0, 12(%ebp)
	je	.L66
	movl	8(%ebp), %eax
	movl	$0, 8(%esp)
	movl	12(%ebp), %edx
	movl	%edx, 4(%esp)
	movl	%eax, (%esp)
	call	_ZN9__gnu_cxx13new_allocatorIiE8allocateEjPKv
	jmp	.L67
.L66:
	movl	$0, %eax
.L67:
	leave
	.cfi_restore 5
	.cfi_def_cfa 4, 4
	ret
	.cfi_endproc
.LFE1407:
	.size	_ZNSt12_Vector_baseIiSaIiEE11_M_allocateEj, .-_ZNSt12_Vector_baseIiSaIiEE11_M_allocateEj
	.section	.text._ZSt22__uninitialized_move_aIPiS0_SaIiEET0_T_S3_S2_RT1_,"axG",@progbits,_ZSt22__uninitialized_move_aIPiS0_SaIiEET0_T_S3_S2_RT1_,comdat
	.weak	_ZSt22__uninitialized_move_aIPiS0_SaIiEET0_T_S3_S2_RT1_
	.type	_ZSt22__uninitialized_move_aIPiS0_SaIiEET0_T_S3_S2_RT1_, @function
_ZSt22__uninitialized_move_aIPiS0_SaIiEET0_T_S3_S2_RT1_:
.LFB1408:
	.cfi_startproc
	pushl	%ebp
	.cfi_def_cfa_offset 8
	.cfi_offset 5, -8
	movl	%esp, %ebp
	.cfi_def_cfa_register 5
	subl	$24, %esp
	movl	20(%ebp), %eax
	movl	%eax, 12(%esp)
	movl	16(%ebp), %eax
	movl	%eax, 8(%esp)
	movl	12(%ebp), %eax
	movl	%eax, 4(%esp)
	movl	8(%ebp), %eax
	movl	%eax, (%esp)
	call	_ZSt22__uninitialized_copy_aIPiS0_iET0_T_S2_S1_RSaIT1_E
	leave
	.cfi_restore 5
	.cfi_def_cfa 4, 4
	ret
	.cfi_endproc
.LFE1408:
	.size	_ZSt22__uninitialized_move_aIPiS0_SaIiEET0_T_S3_S2_RT1_, .-_ZSt22__uninitialized_move_aIPiS0_SaIiEET0_T_S3_S2_RT1_
	.section	.text._ZN9__gnu_cxx13new_allocatorIiE7destroyEPi,"axG",@progbits,_ZN9__gnu_cxx13new_allocatorIiE7destroyEPi,comdat
	.align 2
	.weak	_ZN9__gnu_cxx13new_allocatorIiE7destroyEPi
	.type	_ZN9__gnu_cxx13new_allocatorIiE7destroyEPi, @function
_ZN9__gnu_cxx13new_allocatorIiE7destroyEPi:
.LFB1409:
	.cfi_startproc
	pushl	%ebp
	.cfi_def_cfa_offset 8
	.cfi_offset 5, -8
	movl	%esp, %ebp
	.cfi_def_cfa_register 5
	popl	%ebp
	.cfi_def_cfa 4, 4
	.cfi_restore 5
	ret
	.cfi_endproc
.LFE1409:
	.size	_ZN9__gnu_cxx13new_allocatorIiE7destroyEPi, .-_ZN9__gnu_cxx13new_allocatorIiE7destroyEPi
	.section	.text._ZN9__gnu_cxx17__normal_iteratorIPiSt6vectorIiSaIiEEEC2ERKS1_,"axG",@progbits,_ZN9__gnu_cxx17__normal_iteratorIPiSt6vectorIiSaIiEEEC5ERKS1_,comdat
	.align 2
	.weak	_ZN9__gnu_cxx17__normal_iteratorIPiSt6vectorIiSaIiEEEC2ERKS1_
	.type	_ZN9__gnu_cxx17__normal_iteratorIPiSt6vectorIiSaIiEEEC2ERKS1_, @function
_ZN9__gnu_cxx17__normal_iteratorIPiSt6vectorIiSaIiEEEC2ERKS1_:
.LFB1411:
	.cfi_startproc
	pushl	%ebp
	.cfi_def_cfa_offset 8
	.cfi_offset 5, -8
	movl	%esp, %ebp
	.cfi_def_cfa_register 5
	movl	12(%ebp), %eax
	movl	(%eax), %edx
	movl	8(%ebp), %eax
	movl	%edx, (%eax)
	popl	%ebp
	.cfi_def_cfa 4, 4
	.cfi_restore 5
	ret
	.cfi_endproc
.LFE1411:
	.size	_ZN9__gnu_cxx17__normal_iteratorIPiSt6vectorIiSaIiEEEC2ERKS1_, .-_ZN9__gnu_cxx17__normal_iteratorIPiSt6vectorIiSaIiEEEC2ERKS1_
	.section	.text._ZNSaIiEC2Ev,"axG",@progbits,_ZNSaIiEC5Ev,comdat
	.align 2
	.weak	_ZNSaIiEC2Ev
	.type	_ZNSaIiEC2Ev, @function
_ZNSaIiEC2Ev:
.LFB1414:
	.cfi_startproc
	pushl	%ebp
	.cfi_def_cfa_offset 8
	.cfi_offset 5, -8
	movl	%esp, %ebp
	.cfi_def_cfa_register 5
	subl	$24, %esp
	movl	8(%ebp), %eax
	movl	%eax, (%esp)
	call	_ZN9__gnu_cxx13new_allocatorIiEC2Ev
	leave
	.cfi_restore 5
	.cfi_def_cfa 4, 4
	ret
	.cfi_endproc
.LFE1414:
	.size	_ZNSaIiEC2Ev, .-_ZNSaIiEC2Ev
	.section	.text._ZN9__gnu_cxx13new_allocatorIiED2Ev,"axG",@progbits,_ZN9__gnu_cxx13new_allocatorIiED5Ev,comdat
	.align 2
	.weak	_ZN9__gnu_cxx13new_allocatorIiED2Ev
	.type	_ZN9__gnu_cxx13new_allocatorIiED2Ev, @function
_ZN9__gnu_cxx13new_allocatorIiED2Ev:
.LFB1417:
	.cfi_startproc
	pushl	%ebp
	.cfi_def_cfa_offset 8
	.cfi_offset 5, -8
	movl	%esp, %ebp
	.cfi_def_cfa_register 5
	popl	%ebp
	.cfi_def_cfa 4, 4
	.cfi_restore 5
	ret
	.cfi_endproc
.LFE1417:
	.size	_ZN9__gnu_cxx13new_allocatorIiED2Ev, .-_ZN9__gnu_cxx13new_allocatorIiED2Ev
	.section	.text._ZN9__gnu_cxx13new_allocatorIiE10deallocateEPij,"axG",@progbits,_ZN9__gnu_cxx13new_allocatorIiE10deallocateEPij,comdat
	.align 2
	.weak	_ZN9__gnu_cxx13new_allocatorIiE10deallocateEPij
	.type	_ZN9__gnu_cxx13new_allocatorIiE10deallocateEPij, @function
_ZN9__gnu_cxx13new_allocatorIiE10deallocateEPij:
.LFB1419:
	.cfi_startproc
	pushl	%ebp
	.cfi_def_cfa_offset 8
	.cfi_offset 5, -8
	movl	%esp, %ebp
	.cfi_def_cfa_register 5
	subl	$24, %esp
	movl	12(%ebp), %eax
	movl	%eax, (%esp)
	call	_ZdlPv
	leave
	.cfi_restore 5
	.cfi_def_cfa 4, 4
	ret
	.cfi_endproc
.LFE1419:
	.size	_ZN9__gnu_cxx13new_allocatorIiE10deallocateEPij, .-_ZN9__gnu_cxx13new_allocatorIiE10deallocateEPij
	.section	.text._ZNSt12_Destroy_auxILb1EE9__destroyIPiEEvT_S3_,"axG",@progbits,_ZNSt12_Destroy_auxILb1EE9__destroyIPiEEvT_S3_,comdat
	.weak	_ZNSt12_Destroy_auxILb1EE9__destroyIPiEEvT_S3_
	.type	_ZNSt12_Destroy_auxILb1EE9__destroyIPiEEvT_S3_, @function
_ZNSt12_Destroy_auxILb1EE9__destroyIPiEEvT_S3_:
.LFB1420:
	.cfi_startproc
	pushl	%ebp
	.cfi_def_cfa_offset 8
	.cfi_offset 5, -8
	movl	%esp, %ebp
	.cfi_def_cfa_register 5
	popl	%ebp
	.cfi_def_cfa 4, 4
	.cfi_restore 5
	ret
	.cfi_endproc
.LFE1420:
	.size	_ZNSt12_Destroy_auxILb1EE9__destroyIPiEEvT_S3_, .-_ZNSt12_Destroy_auxILb1EE9__destroyIPiEEvT_S3_
	.section	.text._ZSt12__miter_baseIPiENSt11_Miter_baseIT_E13iterator_typeES2_,"axG",@progbits,_ZSt12__miter_baseIPiENSt11_Miter_baseIT_E13iterator_typeES2_,comdat
	.weak	_ZSt12__miter_baseIPiENSt11_Miter_baseIT_E13iterator_typeES2_
	.type	_ZSt12__miter_baseIPiENSt11_Miter_baseIT_E13iterator_typeES2_, @function
_ZSt12__miter_baseIPiENSt11_Miter_baseIT_E13iterator_typeES2_:
.LFB1421:
	.cfi_startproc
	pushl	%ebp
	.cfi_def_cfa_offset 8
	.cfi_offset 5, -8
	movl	%esp, %ebp
	.cfi_def_cfa_register 5
	subl	$24, %esp
	movl	8(%ebp), %eax
	movl	%eax, (%esp)
	call	_ZNSt10_Iter_baseIPiLb0EE7_S_baseES0_
	leave
	.cfi_restore 5
	.cfi_def_cfa 4, 4
	ret
	.cfi_endproc
.LFE1421:
	.size	_ZSt12__miter_baseIPiENSt11_Miter_baseIT_E13iterator_typeES2_, .-_ZSt12__miter_baseIPiENSt11_Miter_baseIT_E13iterator_typeES2_
	.section	.text._ZSt23__copy_move_backward_a2ILb0EPiS0_ET1_T0_S2_S1_,"axG",@progbits,_ZSt23__copy_move_backward_a2ILb0EPiS0_ET1_T0_S2_S1_,comdat
	.weak	_ZSt23__copy_move_backward_a2ILb0EPiS0_ET1_T0_S2_S1_
	.type	_ZSt23__copy_move_backward_a2ILb0EPiS0_ET1_T0_S2_S1_, @function
_ZSt23__copy_move_backward_a2ILb0EPiS0_ET1_T0_S2_S1_:
.LFB1422:
	.cfi_startproc
	pushl	%ebp
	.cfi_def_cfa_offset 8
	.cfi_offset 5, -8
	movl	%esp, %ebp
	.cfi_def_cfa_register 5
	pushl	%esi
	pushl	%ebx
	subl	$16, %esp
	movl	16(%ebp), %eax
	movl	%eax, (%esp)
	.cfi_offset 3, -16
	.cfi_offset 6, -12
	call	_ZSt12__niter_baseIPiENSt11_Niter_baseIT_E13iterator_typeES2_
	movl	%eax, %esi
	movl	12(%ebp), %eax
	movl	%eax, (%esp)
	call	_ZSt12__niter_baseIPiENSt11_Niter_baseIT_E13iterator_typeES2_
	movl	%eax, %ebx
	movl	8(%ebp), %eax
	movl	%eax, (%esp)
	call	_ZSt12__niter_baseIPiENSt11_Niter_baseIT_E13iterator_typeES2_
	movl	%esi, 8(%esp)
	movl	%ebx, 4(%esp)
	movl	%eax, (%esp)
	call	_ZSt22__copy_move_backward_aILb0EPiS0_ET1_T0_S2_S1_
	addl	$16, %esp
	popl	%ebx
	.cfi_restore 3
	popl	%esi
	.cfi_restore 6
	popl	%ebp
	.cfi_def_cfa 4, 4
	.cfi_restore 5
	ret
	.cfi_endproc
.LFE1422:
	.size	_ZSt23__copy_move_backward_a2ILb0EPiS0_ET1_T0_S2_S1_, .-_ZSt23__copy_move_backward_a2ILb0EPiS0_ET1_T0_S2_S1_
	.section	.text._ZNKSt6vectorIiSaIiEE4sizeEv,"axG",@progbits,_ZNKSt6vectorIiSaIiEE4sizeEv,comdat
	.align 2
	.weak	_ZNKSt6vectorIiSaIiEE4sizeEv
	.type	_ZNKSt6vectorIiSaIiEE4sizeEv, @function
_ZNKSt6vectorIiSaIiEE4sizeEv:
.LFB1423:
	.cfi_startproc
	pushl	%ebp
	.cfi_def_cfa_offset 8
	.cfi_offset 5, -8
	movl	%esp, %ebp
	.cfi_def_cfa_register 5
	movl	8(%ebp), %eax
	movl	4(%eax), %eax
	movl	%eax, %edx
	movl	8(%ebp), %eax
	movl	(%eax), %eax
	movl	%edx, %ecx
	subl	%eax, %ecx
	movl	%ecx, %eax
	sarl	$2, %eax
	popl	%ebp
	.cfi_def_cfa 4, 4
	.cfi_restore 5
	ret
	.cfi_endproc
.LFE1423:
	.size	_ZNKSt6vectorIiSaIiEE4sizeEv, .-_ZNKSt6vectorIiSaIiEE4sizeEv
	.section	.text._ZNKSt6vectorIiSaIiEE8max_sizeEv,"axG",@progbits,_ZNKSt6vectorIiSaIiEE8max_sizeEv,comdat
	.align 2
	.weak	_ZNKSt6vectorIiSaIiEE8max_sizeEv
	.type	_ZNKSt6vectorIiSaIiEE8max_sizeEv, @function
_ZNKSt6vectorIiSaIiEE8max_sizeEv:
.LFB1424:
	.cfi_startproc
	pushl	%ebp
	.cfi_def_cfa_offset 8
	.cfi_offset 5, -8
	movl	%esp, %ebp
	.cfi_def_cfa_register 5
	subl	$24, %esp
	movl	8(%ebp), %eax
	movl	%eax, (%esp)
	call	_ZNKSt12_Vector_baseIiSaIiEE19_M_get_Tp_allocatorEv
	movl	%eax, (%esp)
	call	_ZNK9__gnu_cxx13new_allocatorIiE8max_sizeEv
	leave
	.cfi_restore 5
	.cfi_def_cfa 4, 4
	ret
	.cfi_endproc
.LFE1424:
	.size	_ZNKSt6vectorIiSaIiEE8max_sizeEv, .-_ZNKSt6vectorIiSaIiEE8max_sizeEv
	.section	.text._ZSt3maxIjERKT_S2_S2_,"axG",@progbits,_ZSt3maxIjERKT_S2_S2_,comdat
	.weak	_ZSt3maxIjERKT_S2_S2_
	.type	_ZSt3maxIjERKT_S2_S2_, @function
_ZSt3maxIjERKT_S2_S2_:
.LFB1425:
	.cfi_startproc
	pushl	%ebp
	.cfi_def_cfa_offset 8
	.cfi_offset 5, -8
	movl	%esp, %ebp
	.cfi_def_cfa_register 5
	movl	8(%ebp), %eax
	movl	(%eax), %edx
	movl	12(%ebp), %eax
	movl	(%eax), %eax
	cmpl	%eax, %edx
	jae	.L81
	movl	12(%ebp), %eax
	jmp	.L82
.L81:
	movl	8(%ebp), %eax
.L82:
	popl	%ebp
	.cfi_def_cfa 4, 4
	.cfi_restore 5
	ret
	.cfi_endproc
.LFE1425:
	.size	_ZSt3maxIjERKT_S2_S2_, .-_ZSt3maxIjERKT_S2_S2_
	.section	.text._ZN9__gnu_cxx13new_allocatorIiE8allocateEjPKv,"axG",@progbits,_ZN9__gnu_cxx13new_allocatorIiE8allocateEjPKv,comdat
	.align 2
	.weak	_ZN9__gnu_cxx13new_allocatorIiE8allocateEjPKv
	.type	_ZN9__gnu_cxx13new_allocatorIiE8allocateEjPKv, @function
_ZN9__gnu_cxx13new_allocatorIiE8allocateEjPKv:
.LFB1426:
	.cfi_startproc
	pushl	%ebp
	.cfi_def_cfa_offset 8
	.cfi_offset 5, -8
	movl	%esp, %ebp
	.cfi_def_cfa_register 5
	subl	$24, %esp
	movl	8(%ebp), %eax
	movl	%eax, (%esp)
	call	_ZNK9__gnu_cxx13new_allocatorIiE8max_sizeEv
	cmpl	12(%ebp), %eax
	setb	%al
	testb	%al, %al
	je	.L84
	call	_ZSt17__throw_bad_allocv
.L84:
	movl	12(%ebp), %eax
	sall	$2, %eax
	movl	%eax, (%esp)
	call	_Znwj
	leave
	.cfi_restore 5
	.cfi_def_cfa 4, 4
	ret
	.cfi_endproc
.LFE1426:
	.size	_ZN9__gnu_cxx13new_allocatorIiE8allocateEjPKv, .-_ZN9__gnu_cxx13new_allocatorIiE8allocateEjPKv
	.section	.text._ZSt22__uninitialized_copy_aIPiS0_iET0_T_S2_S1_RSaIT1_E,"axG",@progbits,_ZSt22__uninitialized_copy_aIPiS0_iET0_T_S2_S1_RSaIT1_E,comdat
	.weak	_ZSt22__uninitialized_copy_aIPiS0_iET0_T_S2_S1_RSaIT1_E
	.type	_ZSt22__uninitialized_copy_aIPiS0_iET0_T_S2_S1_RSaIT1_E, @function
_ZSt22__uninitialized_copy_aIPiS0_iET0_T_S2_S1_RSaIT1_E:
.LFB1427:
	.cfi_startproc
	pushl	%ebp
	.cfi_def_cfa_offset 8
	.cfi_offset 5, -8
	movl	%esp, %ebp
	.cfi_def_cfa_register 5
	subl	$24, %esp
	movl	16(%ebp), %eax
	movl	%eax, 8(%esp)
	movl	12(%ebp), %eax
	movl	%eax, 4(%esp)
	movl	8(%ebp), %eax
	movl	%eax, (%esp)
	call	_ZSt18uninitialized_copyIPiS0_ET0_T_S2_S1_
	leave
	.cfi_restore 5
	.cfi_def_cfa 4, 4
	ret
	.cfi_endproc
.LFE1427:
	.size	_ZSt22__uninitialized_copy_aIPiS0_iET0_T_S2_S1_RSaIT1_E, .-_ZSt22__uninitialized_copy_aIPiS0_iET0_T_S2_S1_RSaIT1_E
	.section	.text._ZN9__gnu_cxx13new_allocatorIiEC2Ev,"axG",@progbits,_ZN9__gnu_cxx13new_allocatorIiEC5Ev,comdat
	.align 2
	.weak	_ZN9__gnu_cxx13new_allocatorIiEC2Ev
	.type	_ZN9__gnu_cxx13new_allocatorIiEC2Ev, @function
_ZN9__gnu_cxx13new_allocatorIiEC2Ev:
.LFB1429:
	.cfi_startproc
	pushl	%ebp
	.cfi_def_cfa_offset 8
	.cfi_offset 5, -8
	movl	%esp, %ebp
	.cfi_def_cfa_register 5
	popl	%ebp
	.cfi_def_cfa 4, 4
	.cfi_restore 5
	ret
	.cfi_endproc
.LFE1429:
	.size	_ZN9__gnu_cxx13new_allocatorIiEC2Ev, .-_ZN9__gnu_cxx13new_allocatorIiEC2Ev
	.section	.text._ZNSt10_Iter_baseIPiLb0EE7_S_baseES0_,"axG",@progbits,_ZNSt10_Iter_baseIPiLb0EE7_S_baseES0_,comdat
	.weak	_ZNSt10_Iter_baseIPiLb0EE7_S_baseES0_
	.type	_ZNSt10_Iter_baseIPiLb0EE7_S_baseES0_, @function
_ZNSt10_Iter_baseIPiLb0EE7_S_baseES0_:
.LFB1431:
	.cfi_startproc
	pushl	%ebp
	.cfi_def_cfa_offset 8
	.cfi_offset 5, -8
	movl	%esp, %ebp
	.cfi_def_cfa_register 5
	movl	8(%ebp), %eax
	popl	%ebp
	.cfi_def_cfa 4, 4
	.cfi_restore 5
	ret
	.cfi_endproc
.LFE1431:
	.size	_ZNSt10_Iter_baseIPiLb0EE7_S_baseES0_, .-_ZNSt10_Iter_baseIPiLb0EE7_S_baseES0_
	.section	.text._ZSt12__niter_baseIPiENSt11_Niter_baseIT_E13iterator_typeES2_,"axG",@progbits,_ZSt12__niter_baseIPiENSt11_Niter_baseIT_E13iterator_typeES2_,comdat
	.weak	_ZSt12__niter_baseIPiENSt11_Niter_baseIT_E13iterator_typeES2_
	.type	_ZSt12__niter_baseIPiENSt11_Niter_baseIT_E13iterator_typeES2_, @function
_ZSt12__niter_baseIPiENSt11_Niter_baseIT_E13iterator_typeES2_:
.LFB1432:
	.cfi_startproc
	pushl	%ebp
	.cfi_def_cfa_offset 8
	.cfi_offset 5, -8
	movl	%esp, %ebp
	.cfi_def_cfa_register 5
	subl	$24, %esp
	movl	8(%ebp), %eax
	movl	%eax, (%esp)
	call	_ZNSt10_Iter_baseIPiLb0EE7_S_baseES0_
	leave
	.cfi_restore 5
	.cfi_def_cfa 4, 4
	ret
	.cfi_endproc
.LFE1432:
	.size	_ZSt12__niter_baseIPiENSt11_Niter_baseIT_E13iterator_typeES2_, .-_ZSt12__niter_baseIPiENSt11_Niter_baseIT_E13iterator_typeES2_
	.section	.text._ZSt22__copy_move_backward_aILb0EPiS0_ET1_T0_S2_S1_,"axG",@progbits,_ZSt22__copy_move_backward_aILb0EPiS0_ET1_T0_S2_S1_,comdat
	.weak	_ZSt22__copy_move_backward_aILb0EPiS0_ET1_T0_S2_S1_
	.type	_ZSt22__copy_move_backward_aILb0EPiS0_ET1_T0_S2_S1_, @function
_ZSt22__copy_move_backward_aILb0EPiS0_ET1_T0_S2_S1_:
.LFB1433:
	.cfi_startproc
	pushl	%ebp
	.cfi_def_cfa_offset 8
	.cfi_offset 5, -8
	movl	%esp, %ebp
	.cfi_def_cfa_register 5
	subl	$40, %esp
	movb	$1, -9(%ebp)
	movl	16(%ebp), %eax
	movl	%eax, 8(%esp)
	movl	12(%ebp), %eax
	movl	%eax, 4(%esp)
	movl	8(%ebp), %eax
	movl	%eax, (%esp)
	call	_ZNSt20__copy_move_backwardILb0ELb1ESt26random_access_iterator_tagE13__copy_move_bIiEEPT_PKS3_S6_S4_
	leave
	.cfi_restore 5
	.cfi_def_cfa 4, 4
	ret
	.cfi_endproc
.LFE1433:
	.size	_ZSt22__copy_move_backward_aILb0EPiS0_ET1_T0_S2_S1_, .-_ZSt22__copy_move_backward_aILb0EPiS0_ET1_T0_S2_S1_
	.section	.text._ZNKSt12_Vector_baseIiSaIiEE19_M_get_Tp_allocatorEv,"axG",@progbits,_ZNKSt12_Vector_baseIiSaIiEE19_M_get_Tp_allocatorEv,comdat
	.align 2
	.weak	_ZNKSt12_Vector_baseIiSaIiEE19_M_get_Tp_allocatorEv
	.type	_ZNKSt12_Vector_baseIiSaIiEE19_M_get_Tp_allocatorEv, @function
_ZNKSt12_Vector_baseIiSaIiEE19_M_get_Tp_allocatorEv:
.LFB1434:
	.cfi_startproc
	pushl	%ebp
	.cfi_def_cfa_offset 8
	.cfi_offset 5, -8
	movl	%esp, %ebp
	.cfi_def_cfa_register 5
	movl	8(%ebp), %eax
	popl	%ebp
	.cfi_def_cfa 4, 4
	.cfi_restore 5
	ret
	.cfi_endproc
.LFE1434:
	.size	_ZNKSt12_Vector_baseIiSaIiEE19_M_get_Tp_allocatorEv, .-_ZNKSt12_Vector_baseIiSaIiEE19_M_get_Tp_allocatorEv
	.section	.text._ZNK9__gnu_cxx13new_allocatorIiE8max_sizeEv,"axG",@progbits,_ZNK9__gnu_cxx13new_allocatorIiE8max_sizeEv,comdat
	.align 2
	.weak	_ZNK9__gnu_cxx13new_allocatorIiE8max_sizeEv
	.type	_ZNK9__gnu_cxx13new_allocatorIiE8max_sizeEv, @function
_ZNK9__gnu_cxx13new_allocatorIiE8max_sizeEv:
.LFB1435:
	.cfi_startproc
	pushl	%ebp
	.cfi_def_cfa_offset 8
	.cfi_offset 5, -8
	movl	%esp, %ebp
	.cfi_def_cfa_register 5
	movl	$1073741823, %eax
	popl	%ebp
	.cfi_def_cfa 4, 4
	.cfi_restore 5
	ret
	.cfi_endproc
.LFE1435:
	.size	_ZNK9__gnu_cxx13new_allocatorIiE8max_sizeEv, .-_ZNK9__gnu_cxx13new_allocatorIiE8max_sizeEv
	.section	.text._ZSt18uninitialized_copyIPiS0_ET0_T_S2_S1_,"axG",@progbits,_ZSt18uninitialized_copyIPiS0_ET0_T_S2_S1_,comdat
	.weak	_ZSt18uninitialized_copyIPiS0_ET0_T_S2_S1_
	.type	_ZSt18uninitialized_copyIPiS0_ET0_T_S2_S1_, @function
_ZSt18uninitialized_copyIPiS0_ET0_T_S2_S1_:
.LFB1436:
	.cfi_startproc
	pushl	%ebp
	.cfi_def_cfa_offset 8
	.cfi_offset 5, -8
	movl	%esp, %ebp
	.cfi_def_cfa_register 5
	subl	$24, %esp
	movl	16(%ebp), %eax
	movl	%eax, 8(%esp)
	movl	12(%ebp), %eax
	movl	%eax, 4(%esp)
	movl	8(%ebp), %eax
	movl	%eax, (%esp)
	call	_ZNSt20__uninitialized_copyILb1EE13__uninit_copyIPiS2_EET0_T_S4_S3_
	leave
	.cfi_restore 5
	.cfi_def_cfa 4, 4
	ret
	.cfi_endproc
.LFE1436:
	.size	_ZSt18uninitialized_copyIPiS0_ET0_T_S2_S1_, .-_ZSt18uninitialized_copyIPiS0_ET0_T_S2_S1_
	.section	.text._ZNSt20__copy_move_backwardILb0ELb1ESt26random_access_iterator_tagE13__copy_move_bIiEEPT_PKS3_S6_S4_,"axG",@progbits,_ZNSt20__copy_move_backwardILb0ELb1ESt26random_access_iterator_tagE13__copy_move_bIiEEPT_PKS3_S6_S4_,comdat
	.weak	_ZNSt20__copy_move_backwardILb0ELb1ESt26random_access_iterator_tagE13__copy_move_bIiEEPT_PKS3_S6_S4_
	.type	_ZNSt20__copy_move_backwardILb0ELb1ESt26random_access_iterator_tagE13__copy_move_bIiEEPT_PKS3_S6_S4_, @function
_ZNSt20__copy_move_backwardILb0ELb1ESt26random_access_iterator_tagE13__copy_move_bIiEEPT_PKS3_S6_S4_:
.LFB1437:
	.cfi_startproc
	pushl	%ebp
	.cfi_def_cfa_offset 8
	.cfi_offset 5, -8
	movl	%esp, %ebp
	.cfi_def_cfa_register 5
	subl	$40, %esp
	movl	12(%ebp), %edx
	movl	8(%ebp), %eax
	movl	%edx, %ecx
	subl	%eax, %ecx
	movl	%ecx, %eax
	sarl	$2, %eax
	movl	%eax, -12(%ebp)
	cmpl	$0, -12(%ebp)
	je	.L94
	movl	-12(%ebp), %eax
	leal	0(,%eax,4), %edx
	movl	-12(%ebp), %eax
	sall	$2, %eax
	negl	%eax
	addl	16(%ebp), %eax
	movl	%edx, 8(%esp)
	movl	8(%ebp), %edx
	movl	%edx, 4(%esp)
	movl	%eax, (%esp)
	call	memmove
.L94:
	movl	-12(%ebp), %eax
	sall	$2, %eax
	negl	%eax
	addl	16(%ebp), %eax
	leave
	.cfi_restore 5
	.cfi_def_cfa 4, 4
	ret
	.cfi_endproc
.LFE1437:
	.size	_ZNSt20__copy_move_backwardILb0ELb1ESt26random_access_iterator_tagE13__copy_move_bIiEEPT_PKS3_S6_S4_, .-_ZNSt20__copy_move_backwardILb0ELb1ESt26random_access_iterator_tagE13__copy_move_bIiEEPT_PKS3_S6_S4_
	.section	.text._ZNSt20__uninitialized_copyILb1EE13__uninit_copyIPiS2_EET0_T_S4_S3_,"axG",@progbits,_ZNSt20__uninitialized_copyILb1EE13__uninit_copyIPiS2_EET0_T_S4_S3_,comdat
	.weak	_ZNSt20__uninitialized_copyILb1EE13__uninit_copyIPiS2_EET0_T_S4_S3_
	.type	_ZNSt20__uninitialized_copyILb1EE13__uninit_copyIPiS2_EET0_T_S4_S3_, @function
_ZNSt20__uninitialized_copyILb1EE13__uninit_copyIPiS2_EET0_T_S4_S3_:
.LFB1438:
	.cfi_startproc
	pushl	%ebp
	.cfi_def_cfa_offset 8
	.cfi_offset 5, -8
	movl	%esp, %ebp
	.cfi_def_cfa_register 5
	subl	$24, %esp
	movl	16(%ebp), %eax
	movl	%eax, 8(%esp)
	movl	12(%ebp), %eax
	movl	%eax, 4(%esp)
	movl	8(%ebp), %eax
	movl	%eax, (%esp)
	call	_ZSt4copyIPiS0_ET0_T_S2_S1_
	leave
	.cfi_restore 5
	.cfi_def_cfa 4, 4
	ret
	.cfi_endproc
.LFE1438:
	.size	_ZNSt20__uninitialized_copyILb1EE13__uninit_copyIPiS2_EET0_T_S4_S3_, .-_ZNSt20__uninitialized_copyILb1EE13__uninit_copyIPiS2_EET0_T_S4_S3_
	.section	.text._ZSt4copyIPiS0_ET0_T_S2_S1_,"axG",@progbits,_ZSt4copyIPiS0_ET0_T_S2_S1_,comdat
	.weak	_ZSt4copyIPiS0_ET0_T_S2_S1_
	.type	_ZSt4copyIPiS0_ET0_T_S2_S1_, @function
_ZSt4copyIPiS0_ET0_T_S2_S1_:
.LFB1439:
	.cfi_startproc
	pushl	%ebp
	.cfi_def_cfa_offset 8
	.cfi_offset 5, -8
	movl	%esp, %ebp
	.cfi_def_cfa_register 5
	pushl	%ebx
	subl	$20, %esp
	movl	12(%ebp), %eax
	movl	%eax, (%esp)
	.cfi_offset 3, -12
	call	_ZSt12__miter_baseIPiENSt11_Miter_baseIT_E13iterator_typeES2_
	movl	%eax, %ebx
	movl	8(%ebp), %eax
	movl	%eax, (%esp)
	call	_ZSt12__miter_baseIPiENSt11_Miter_baseIT_E13iterator_typeES2_
	movl	16(%ebp), %edx
	movl	%edx, 8(%esp)
	movl	%ebx, 4(%esp)
	movl	%eax, (%esp)
	call	_ZSt14__copy_move_a2ILb0EPiS0_ET1_T0_S2_S1_
	addl	$20, %esp
	popl	%ebx
	.cfi_restore 3
	popl	%ebp
	.cfi_def_cfa 4, 4
	.cfi_restore 5
	ret
	.cfi_endproc
.LFE1439:
	.size	_ZSt4copyIPiS0_ET0_T_S2_S1_, .-_ZSt4copyIPiS0_ET0_T_S2_S1_
	.section	.text._ZSt14__copy_move_a2ILb0EPiS0_ET1_T0_S2_S1_,"axG",@progbits,_ZSt14__copy_move_a2ILb0EPiS0_ET1_T0_S2_S1_,comdat
	.weak	_ZSt14__copy_move_a2ILb0EPiS0_ET1_T0_S2_S1_
	.type	_ZSt14__copy_move_a2ILb0EPiS0_ET1_T0_S2_S1_, @function
_ZSt14__copy_move_a2ILb0EPiS0_ET1_T0_S2_S1_:
.LFB1440:
	.cfi_startproc
	pushl	%ebp
	.cfi_def_cfa_offset 8
	.cfi_offset 5, -8
	movl	%esp, %ebp
	.cfi_def_cfa_register 5
	pushl	%esi
	pushl	%ebx
	subl	$16, %esp
	movl	16(%ebp), %eax
	movl	%eax, (%esp)
	.cfi_offset 3, -16
	.cfi_offset 6, -12
	call	_ZSt12__niter_baseIPiENSt11_Niter_baseIT_E13iterator_typeES2_
	movl	%eax, %esi
	movl	12(%ebp), %eax
	movl	%eax, (%esp)
	call	_ZSt12__niter_baseIPiENSt11_Niter_baseIT_E13iterator_typeES2_
	movl	%eax, %ebx
	movl	8(%ebp), %eax
	movl	%eax, (%esp)
	call	_ZSt12__niter_baseIPiENSt11_Niter_baseIT_E13iterator_typeES2_
	movl	%esi, 8(%esp)
	movl	%ebx, 4(%esp)
	movl	%eax, (%esp)
	call	_ZSt13__copy_move_aILb0EPiS0_ET1_T0_S2_S1_
	addl	$16, %esp
	popl	%ebx
	.cfi_restore 3
	popl	%esi
	.cfi_restore 6
	popl	%ebp
	.cfi_def_cfa 4, 4
	.cfi_restore 5
	ret
	.cfi_endproc
.LFE1440:
	.size	_ZSt14__copy_move_a2ILb0EPiS0_ET1_T0_S2_S1_, .-_ZSt14__copy_move_a2ILb0EPiS0_ET1_T0_S2_S1_
	.section	.text._ZSt13__copy_move_aILb0EPiS0_ET1_T0_S2_S1_,"axG",@progbits,_ZSt13__copy_move_aILb0EPiS0_ET1_T0_S2_S1_,comdat
	.weak	_ZSt13__copy_move_aILb0EPiS0_ET1_T0_S2_S1_
	.type	_ZSt13__copy_move_aILb0EPiS0_ET1_T0_S2_S1_, @function
_ZSt13__copy_move_aILb0EPiS0_ET1_T0_S2_S1_:
.LFB1441:
	.cfi_startproc
	pushl	%ebp
	.cfi_def_cfa_offset 8
	.cfi_offset 5, -8
	movl	%esp, %ebp
	.cfi_def_cfa_register 5
	subl	$40, %esp
	movb	$1, -9(%ebp)
	movl	16(%ebp), %eax
	movl	%eax, 8(%esp)
	movl	12(%ebp), %eax
	movl	%eax, 4(%esp)
	movl	8(%ebp), %eax
	movl	%eax, (%esp)
	call	_ZNSt11__copy_moveILb0ELb1ESt26random_access_iterator_tagE8__copy_mIiEEPT_PKS3_S6_S4_
	leave
	.cfi_restore 5
	.cfi_def_cfa 4, 4
	ret
	.cfi_endproc
.LFE1441:
	.size	_ZSt13__copy_move_aILb0EPiS0_ET1_T0_S2_S1_, .-_ZSt13__copy_move_aILb0EPiS0_ET1_T0_S2_S1_
	.section	.text._ZNSt11__copy_moveILb0ELb1ESt26random_access_iterator_tagE8__copy_mIiEEPT_PKS3_S6_S4_,"axG",@progbits,_ZNSt11__copy_moveILb0ELb1ESt26random_access_iterator_tagE8__copy_mIiEEPT_PKS3_S6_S4_,comdat
	.weak	_ZNSt11__copy_moveILb0ELb1ESt26random_access_iterator_tagE8__copy_mIiEEPT_PKS3_S6_S4_
	.type	_ZNSt11__copy_moveILb0ELb1ESt26random_access_iterator_tagE8__copy_mIiEEPT_PKS3_S6_S4_, @function
_ZNSt11__copy_moveILb0ELb1ESt26random_access_iterator_tagE8__copy_mIiEEPT_PKS3_S6_S4_:
.LFB1442:
	.cfi_startproc
	pushl	%ebp
	.cfi_def_cfa_offset 8
	.cfi_offset 5, -8
	movl	%esp, %ebp
	.cfi_def_cfa_register 5
	subl	$40, %esp
	movl	12(%ebp), %edx
	movl	8(%ebp), %eax
	movl	%edx, %ecx
	subl	%eax, %ecx
	movl	%ecx, %eax
	sarl	$2, %eax
	movl	%eax, -12(%ebp)
	cmpl	$0, -12(%ebp)
	je	.L100
	movl	-12(%ebp), %eax
	sall	$2, %eax
	movl	%eax, 8(%esp)
	movl	8(%ebp), %eax
	movl	%eax, 4(%esp)
	movl	16(%ebp), %eax
	movl	%eax, (%esp)
	call	memmove
.L100:
	movl	-12(%ebp), %eax
	sall	$2, %eax
	addl	16(%ebp), %eax
	leave
	.cfi_restore 5
	.cfi_def_cfa 4, 4
	ret
	.cfi_endproc
.LFE1442:
	.size	_ZNSt11__copy_moveILb0ELb1ESt26random_access_iterator_tagE8__copy_mIiEEPT_PKS3_S6_S4_, .-_ZNSt11__copy_moveILb0ELb1ESt26random_access_iterator_tagE8__copy_mIiEEPT_PKS3_S6_S4_
	.text
	.type	_Z41__static_initialization_and_destruction_0ii, @function
_Z41__static_initialization_and_destruction_0ii:
.LFB1443:
	.cfi_startproc
	pushl	%ebp
	.cfi_def_cfa_offset 8
	.cfi_offset 5, -8
	movl	%esp, %ebp
	.cfi_def_cfa_register 5
	subl	$24, %esp
	cmpl	$1, 8(%ebp)
	jne	.L101
	cmpl	$65535, 12(%ebp)
	jne	.L101
	movl	$_ZStL8__ioinit, (%esp)
	call	_ZNSt8ios_base4InitC1Ev
	movl	$_ZNSt8ios_base4InitD1Ev, %eax
	movl	$__dso_handle, 8(%esp)
	movl	$_ZStL8__ioinit, 4(%esp)
	movl	%eax, (%esp)
	call	__cxa_atexit
.L101:
	leave
	.cfi_restore 5
	.cfi_def_cfa 4, 4
	ret
	.cfi_endproc
.LFE1443:
	.size	_Z41__static_initialization_and_destruction_0ii, .-_Z41__static_initialization_and_destruction_0ii
	.type	_GLOBAL__sub_I_main, @function
_GLOBAL__sub_I_main:
.LFB1444:
	.cfi_startproc
	pushl	%ebp
	.cfi_def_cfa_offset 8
	.cfi_offset 5, -8
	movl	%esp, %ebp
	.cfi_def_cfa_register 5
	subl	$24, %esp
	movl	$65535, 4(%esp)
	movl	$1, (%esp)
	call	_Z41__static_initialization_and_destruction_0ii
	leave
	.cfi_restore 5
	.cfi_def_cfa 4, 4
	ret
	.cfi_endproc
.LFE1444:
	.size	_GLOBAL__sub_I_main, .-_GLOBAL__sub_I_main
	.section	.ctors,"aw",@progbits
	.align 4
	.long	_GLOBAL__sub_I_main
	.weakref	_ZL20__gthrw_pthread_oncePiPFvvE,pthread_once
	.weakref	_ZL27__gthrw_pthread_getspecificj,pthread_getspecific
	.weakref	_ZL27__gthrw_pthread_setspecificjPKv,pthread_setspecific
	.weakref	_ZL22__gthrw_pthread_createPmPK14pthread_attr_tPFPvS3_ES3_,pthread_create
	.weakref	_ZL20__gthrw_pthread_joinmPPv,pthread_join
	.weakref	_ZL21__gthrw_pthread_equalmm,pthread_equal
	.weakref	_ZL20__gthrw_pthread_selfv,pthread_self
	.weakref	_ZL22__gthrw_pthread_detachm,pthread_detach
	.weakref	_ZL22__gthrw_pthread_cancelm,pthread_cancel
	.weakref	_ZL19__gthrw_sched_yieldv,sched_yield
	.weakref	_ZL26__gthrw_pthread_mutex_lockP15pthread_mutex_t,pthread_mutex_lock
	.weakref	_ZL29__gthrw_pthread_mutex_trylockP15pthread_mutex_t,pthread_mutex_trylock
	.weakref	_ZL31__gthrw_pthread_mutex_timedlockP15pthread_mutex_tPK8timespec,pthread_mutex_timedlock
	.weakref	_ZL28__gthrw_pthread_mutex_unlockP15pthread_mutex_t,pthread_mutex_unlock
	.weakref	_ZL26__gthrw_pthread_mutex_initP15pthread_mutex_tPK19pthread_mutexattr_t,pthread_mutex_init
	.weakref	_ZL29__gthrw_pthread_mutex_destroyP15pthread_mutex_t,pthread_mutex_destroy
	.weakref	_ZL30__gthrw_pthread_cond_broadcastP14pthread_cond_t,pthread_cond_broadcast
	.weakref	_ZL27__gthrw_pthread_cond_signalP14pthread_cond_t,pthread_cond_signal
	.weakref	_ZL25__gthrw_pthread_cond_waitP14pthread_cond_tP15pthread_mutex_t,pthread_cond_wait
	.weakref	_ZL30__gthrw_pthread_cond_timedwaitP14pthread_cond_tP15pthread_mutex_tPK8timespec,pthread_cond_timedwait
	.weakref	_ZL28__gthrw_pthread_cond_destroyP14pthread_cond_t,pthread_cond_destroy
	.weakref	_ZL26__gthrw_pthread_key_createPjPFvPvE,pthread_key_create
	.weakref	_ZL26__gthrw_pthread_key_deletej,pthread_key_delete
	.weakref	_ZL30__gthrw_pthread_mutexattr_initP19pthread_mutexattr_t,pthread_mutexattr_init
	.weakref	_ZL33__gthrw_pthread_mutexattr_settypeP19pthread_mutexattr_ti,pthread_mutexattr_settype
	.weakref	_ZL33__gthrw_pthread_mutexattr_destroyP19pthread_mutexattr_t,pthread_mutexattr_destroy
	.weak	_ZNSt6vectorIiSaIiEEC1Ev
	.set	_ZNSt6vectorIiSaIiEEC1Ev,_ZNSt6vectorIiSaIiEEC2Ev
	.weak	_ZNSt6vectorIiSaIiEED1Ev
	.set	_ZNSt6vectorIiSaIiEED1Ev,_ZNSt6vectorIiSaIiEED2Ev
	.weak	_ZNSt12_Vector_baseIiSaIiEE12_Vector_implD1Ev
	.set	_ZNSt12_Vector_baseIiSaIiEE12_Vector_implD1Ev,_ZNSt12_Vector_baseIiSaIiEE12_Vector_implD2Ev
	.weak	_ZNSt12_Vector_baseIiSaIiEEC1Ev
	.set	_ZNSt12_Vector_baseIiSaIiEEC1Ev,_ZNSt12_Vector_baseIiSaIiEEC2Ev
	.weak	_ZNSt12_Vector_baseIiSaIiEED1Ev
	.set	_ZNSt12_Vector_baseIiSaIiEED1Ev,_ZNSt12_Vector_baseIiSaIiEED2Ev
	.weak	_ZNSt12_Vector_baseIiSaIiEE12_Vector_implC1Ev
	.set	_ZNSt12_Vector_baseIiSaIiEE12_Vector_implC1Ev,_ZNSt12_Vector_baseIiSaIiEE12_Vector_implC2Ev
	.weak	_ZNSaIiED1Ev
	.set	_ZNSaIiED1Ev,_ZNSaIiED2Ev
	.weak	_ZN9__gnu_cxx17__normal_iteratorIPiSt6vectorIiSaIiEEEC1ERKS1_
	.set	_ZN9__gnu_cxx17__normal_iteratorIPiSt6vectorIiSaIiEEEC1ERKS1_,_ZN9__gnu_cxx17__normal_iteratorIPiSt6vectorIiSaIiEEEC2ERKS1_
	.weak	_ZNSaIiEC1Ev
	.set	_ZNSaIiEC1Ev,_ZNSaIiEC2Ev
	.weak	_ZN9__gnu_cxx13new_allocatorIiED1Ev
	.set	_ZN9__gnu_cxx13new_allocatorIiED1Ev,_ZN9__gnu_cxx13new_allocatorIiED2Ev
	.weak	_ZN9__gnu_cxx13new_allocatorIiEC1Ev
	.set	_ZN9__gnu_cxx13new_allocatorIiEC1Ev,_ZN9__gnu_cxx13new_allocatorIiEC2Ev
	.ident	"GCC: (Ubuntu/Linaro 4.6.3-1ubuntu5) 4.6.3"
	.section	.note.GNU-stack,"",@progbits
